; Function Attrs: mustprogress nofree norecurse nosync nounwind willreturn memory(write, argmem: readwrite, inaccessiblemem: none) uwtable
define hidden void @_ZN6BitMap11clear_largeEv(ptr nocapture noundef nonnull readonly align 8 dereferenceable(16) %0) local_unnamed_addr #6 align 2 {
  %2 = getelementptr inbounds i8, ptr %0, i64 8
  %3 = load i64, ptr %2, align 8
  %4 = add i64 %3, 63
  %5 = load ptr, ptr %0, align 8
  %6 = lshr i64 %4, 3
  %7 = and i64 %6, 2305843009213693944
  tail call void @llvm.memset.p0.i64(ptr align 8 %5, i8 0, i64 %7, i1 false)
  ret void
}